target datalayout = "e-m:e-p270:32:32-p271:32:32-p272:64:64-i64:64-i128:128-f80:128-n8:16:32:64-S128"
target triple = "x86_64-pc-linux-gnu"

; Function Attrs: nounwind uwtable
define ptr @Abc_NtkDarSynch(ptr noundef %0, ptr noundef %1, i32 noundef %2, i32 noundef %3) #0 {
  %5 = alloca ptr, align 8
  %6 = alloca ptr, align 8
  %7 = alloca ptr, align 8
  %8 = alloca i32, align 4
  %9 = alloca i32, align 4
  %10 = alloca ptr, align 8
  %11 = alloca ptr, align 8
  %12 = alloca ptr, align 8
  %13 = alloca ptr, align 8
  store ptr %0, ptr %6, align 8
  store ptr %1, ptr %7, align 8
  store i32 %2, ptr %8, align 4
  store i32 %3, ptr %9, align 4
  %14 = load ptr, ptr %6, align 8
  %15 = call ptr @Abc_NtkToDar(ptr noundef %14, i32 noundef 0, i32 noundef 1)
  store ptr %15, ptr %11, align 8
  %16 = load ptr, ptr %11, align 8
  %17 = icmp eq ptr %16, null
  br i1 %17, label %18, label %19

18:                                               ; preds = %4
  store ptr null, ptr %5, align 8
  br label %42

19:                                               ; preds = %4
  %20 = load ptr, ptr %7, align 8
  %21 = call ptr @Abc_NtkToDar(ptr noundef %20, i32 noundef 0, i32 noundef 1)
  store ptr %21, ptr %12, align 8
  %22 = load ptr, ptr %12, align 8
  %23 = icmp eq ptr %22, null
  br i1 %23, label %24, label %26

24:                                               ; preds = %19
  %25 = load ptr, ptr %11, align 8
  call void @Aig_ManStop(ptr noundef %25)
  store ptr null, ptr %5, align 8
  br label %42

26:                                               ; preds = %19
  %27 = load ptr, ptr %11, align 8
  %28 = load ptr, ptr %12, align 8
  %29 = load i32, ptr %8, align 4
  %30 = load i32, ptr %9, align 4
  %31 = call ptr @Saig_Synchronize(ptr noundef %27, ptr noundef %28, i32 noundef %29, i32 noundef %30)
  store ptr %31, ptr %13, align 8
  %32 = load ptr, ptr %11, align 8
  call void @Aig_ManStop(ptr noundef %32)
  %33 = load ptr, ptr %12, align 8
  call void @Aig_ManStop(ptr noundef %33)
  %34 = load ptr, ptr %13, align 8
  %35 = icmp eq ptr %34, null
  br i1 %35, label %36, label %37

36:                                               ; preds = %26
  store ptr null, ptr %5, align 8
  br label %42

37:                                               ; preds = %26
  %38 = load ptr, ptr %13, align 8
  %39 = call ptr @Abc_NtkFromAigPhase(ptr noundef %38)
  store ptr %39, ptr %10, align 8
  %40 = load ptr, ptr %13, align 8
  call void @Aig_ManStop(ptr noundef %40)
  %41 = load ptr, ptr %10, align 8
  store ptr %41, ptr %5, align 8
  br label %42

42:                                               ; preds = %37, %36, %24, %18
  %43 = load ptr, ptr %5, align 8
  ret ptr %43
}