; Function Attrs: nounwind uwtable
define noundef ptr @Abc_NtkDarSynch(ptr noundef %0, ptr noundef %1, i32 noundef %2, i32 noundef %3) local_unnamed_addr #1 {
  %5 = tail call ptr @Abc_NtkToDar(ptr noundef %0, i32 noundef 0, i32 noundef 1)
  %6 = icmp eq ptr %5, null
  br i1 %6, label %15, label %7

7:                                                ; preds = %4
  %8 = tail call ptr @Abc_NtkToDar(ptr noundef %1, i32 noundef 0, i32 noundef 1)
  %9 = icmp eq ptr %8, null
  br i1 %9, label %.sink.split, label %10

10:                                               ; preds = %7
  %11 = tail call ptr @Saig_Synchronize(ptr noundef nonnull %5, ptr noundef nonnull %8, i32 noundef %2, i32 noundef %3) #19
  tail call void @Aig_ManStop(ptr noundef nonnull %5) #19
  tail call void @Aig_ManStop(ptr noundef nonnull %8) #19
  %12 = icmp eq ptr %11, null
  br i1 %12, label %15, label %13

13:                                               ; preds = %10
  %14 = tail call ptr @Abc_NtkFromAigPhase(ptr noundef nonnull %11)
  br label %.sink.split

.sink.split:                                      ; preds = %7, %13
  %.sink = phi ptr [ %11, %13 ], [ %5, %7 ]
  %.0.ph = phi ptr [ %14, %13 ], [ null, %7 ]
  tail call void @Aig_ManStop(ptr noundef nonnull %.sink) #19
  br label %15

15:                                               ; preds = %.sink.split, %10, %4
  %.0 = phi ptr [ null, %4 ], [ null, %10 ], [ %.0.ph, %.sink.split ]
  ret ptr %.0
}